target datalayout = "e-m:e-p270:32:32-p271:32:32-p272:64:64-i64:64-i128:128-f80:128-n8:16:32:64-S128"
target triple = "x86_64-pc-linux-gnu"

%struct.ssl_st = type { i32, ptr, ptr, ptr, %struct.CRYPTO_REF_COUNT, ptr, %struct.crypto_ex_data_st }
%struct.CRYPTO_REF_COUNT = type { i32 }
%struct.crypto_ex_data_st = type { ptr, ptr }
%struct.ssl_connection_st = type { %struct.ssl_st, ptr, i32, ptr, ptr, ptr, i32, ptr, i32, i32, i32, i32, %struct.OSSL_TIME, %struct.OSSL_TIME, %struct.ossl_statem_st, i32, ptr, ptr, i64, i64, i64, %struct.ossl_quic_tls_callbacks_st, ptr, ptr, %struct.anon, ptr, ptr, ptr, i32, ptr, %struct.ssl_dane_st, ptr, ptr, ptr, ptr, i32, [64 x i8], [64 x i8], [64 x i8], [64 x i8], [64 x i8], [64 x i8], [64 x i8], [64 x i8], [64 x i8], [64 x i8], [64 x i8], [64 x i8], ptr, [64 x i8], i64, i32, i64, [32 x i8], ptr, ptr, ptr, i64, ptr, [32 x i8], i64, i32, ptr, ptr, i32, i32, ptr, ptr, ptr, ptr, ptr, i64, ptr, ptr, i64, i32, i32, i32, i64, i32, i32, i64, i64, i64, %struct.anon.1, ptr, i32, ptr, ptr, ptr, i32, ptr, ptr, ptr, i32, i32, i32, i32, ptr, i64, i32, ptr, %struct.srp_ctx_st, ptr, %struct.record_layer_st, ptr, ptr, ptr, ptr, i64, i32, i32, i32, i64, i64, i64, ptr, ptr, ptr, ptr, ptr, i64, ptr, i64, ptr, i64 }
%struct.OSSL_TIME = type { i64 }
%struct.ossl_statem_st = type { i32, i32, i32, i32, i32, i32, i32, i32, i32, i32, i32, i32, i32, ptr, ptr, ptr, i8 }
%struct.ossl_quic_tls_callbacks_st = type { ptr, ptr, ptr, ptr, ptr, ptr }
%struct.anon = type { i64, [32 x i8], [32 x i8], ptr, ptr, i32, i32, i32, i32, [2 x i8], i32, i32, i32, i32, %struct.anon.0, [64 x i8], i64, [64 x i8], i64, i32, i32, ptr, i64, ptr, i64, i32, i8, i8, i16, ptr, i16 }
%struct.anon.0 = type { [128 x i8], i64, [128 x i8], i64, i64, i32, ptr, ptr, [4 x ptr], [4 x i16], i64, i32, ptr, i64, ptr, i64, ptr, ptr, ptr, i32, i64, ptr, i32, ptr, i64, ptr, i64, ptr, i64, ptr, ptr, ptr, ptr, i64, i64, ptr, ptr, i32, i32, i32, i32 }
%struct.ssl_dane_st = type { ptr, ptr, ptr, ptr, ptr, i32, i32, i32, i64 }
%struct.anon.1 = type { [29 x i8], ptr, ptr, ptr, i32, ptr, i16, i32, %struct.anon.2, i32, i32, i64, ptr, i64, ptr, i64, ptr, i64, ptr, i64, ptr, i64, ptr, ptr, ptr, ptr, ptr, ptr, ptr, i64, ptr, i64, i32, i32, i32, i32, ptr, i64, i32, i8, i32, [4 x i32], i32, i8, i8, i8, i8 }
%struct.anon.2 = type { ptr, ptr, ptr, i64 }
%struct.srp_ctx_st = type { ptr, ptr, ptr, ptr, ptr, ptr, ptr, ptr, ptr, ptr, ptr, ptr, ptr, ptr, i32, i64 }
%struct.record_layer_st = type { ptr, ptr, ptr, ptr, ptr, ptr, ptr, ptr, i64, i32, i64, [4 x i8], i64, i64, i8, ptr, i32, ptr, ptr, ptr, i64, i64, i64, i64, [32 x %struct.tls_record_st] }
%struct.tls_record_st = type { ptr, i32, i8, ptr, ptr, i64, i64, i16, [8 x i8] }
%struct.ssl_method_st = type { i32, i32, i64, ptr, ptr, ptr, ptr, ptr, ptr, ptr, ptr, ptr, ptr, ptr, ptr, ptr, ptr, ptr, ptr, ptr, ptr, ptr, ptr, ptr, ptr, ptr, ptr, ptr, ptr, ptr, ptr, ptr }
%struct.ssl3_enc_method = type { ptr, ptr, ptr, ptr, ptr, i64, ptr, i64, ptr, ptr, i32, ptr, ptr, ptr }

@.str = private unnamed_addr constant [35 x i8] c"../openssl/ssl/statem/statem_lib.c\00", align 1
@__func__.ssl_add_cert_to_wpacket = private unnamed_addr constant [24 x i8] c"ssl_add_cert_to_wpacket\00", align 1

; Function Attrs: nounwind uwtable
define internal i32 @ssl_add_cert_to_wpacket(ptr noundef %0, ptr noundef %1, ptr noundef %2, i32 noundef %3, i32 noundef %4) #0 {
  %6 = alloca i32, align 4
  %7 = alloca ptr, align 8
  %8 = alloca ptr, align 8
  %9 = alloca ptr, align 8
  %10 = alloca i32, align 4
  %11 = alloca i32, align 4
  %12 = alloca i32, align 4
  %13 = alloca ptr, align 8
  %14 = alloca i32, align 4
  %15 = alloca i32, align 4
  store ptr %0, ptr %7, align 8, !tbaa !18
  store ptr %1, ptr %8, align 8, !tbaa !97
  store ptr %2, ptr %9, align 8, !tbaa !208
  store i32 %3, ptr %10, align 4, !tbaa !85
  store i32 %4, ptr %11, align 4, !tbaa !85
  call void @llvm.lifetime.start.p0(i64 4, ptr %12) #9
  call void @llvm.lifetime.start.p0(i64 8, ptr %13) #9
  call void @llvm.lifetime.start.p0(i64 4, ptr %14) #9
  store i32 4096, ptr %14, align 4, !tbaa !85
  %16 = load i32, ptr %11, align 4, !tbaa !85
  %17 = icmp ne i32 %16, 0
  br i1 %17, label %18, label %21

18:                                               ; preds = %5
  %19 = load i32, ptr %14, align 4, !tbaa !85
  %20 = or i32 %19, 32768
  store i32 %20, ptr %14, align 4, !tbaa !85
  br label %21

21:                                               ; preds = %18, %5
  %22 = load ptr, ptr %9, align 8, !tbaa !208
  %23 = call i32 @i2d_X509(ptr noundef %22, ptr noundef null)
  store i32 %23, ptr %12, align 4, !tbaa !85
  %24 = load i32, ptr %12, align 4, !tbaa !85
  %25 = icmp slt i32 %24, 0
  br i1 %25, label %26, label %32

26:                                               ; preds = %21
  %27 = load i32, ptr %11, align 4, !tbaa !85
  %28 = icmp ne i32 %27, 0
  br i1 %28, label %31, label %29

29:                                               ; preds = %26
  call void @ERR_new()
  call void @ERR_set_debug(ptr noundef @.str, i32 noundef 980, ptr noundef @__func__.ssl_add_cert_to_wpacket)
  %30 = load ptr, ptr %7, align 8, !tbaa !18
  call void (ptr, i32, i32, ptr, ...) @ossl_statem_fatal(ptr noundef %30, i32 noundef 80, i32 noundef 524295, ptr noundef null)
  br label %31

31:                                               ; preds = %29, %26
  store i32 0, ptr %6, align 4
  store i32 1, ptr %15, align 4
  br label %90

32:                                               ; preds = %21
  %33 = load ptr, ptr %8, align 8, !tbaa !97
  %34 = load i32, ptr %12, align 4, !tbaa !85
  %35 = sext i32 %34 to i64
  %36 = call i32 @WPACKET_sub_allocate_bytes__(ptr noundef %33, i64 noundef %35, ptr noundef %13, i64 noundef 3)
  %37 = icmp ne i32 %36, 0
  br i1 %37, label %38, label %43

38:                                               ; preds = %32
  %39 = load ptr, ptr %9, align 8, !tbaa !208
  %40 = call i32 @i2d_X509(ptr noundef %39, ptr noundef %13)
  %41 = load i32, ptr %12, align 4, !tbaa !85
  %42 = icmp ne i32 %40, %41
  br i1 %42, label %43, label %49

43:                                               ; preds = %38, %32
  %44 = load i32, ptr %11, align 4, !tbaa !85
  %45 = icmp ne i32 %44, 0
  br i1 %45, label %48, label %46

46:                                               ; preds = %43
  call void @ERR_new()
  call void @ERR_set_debug(ptr noundef @.str, i32 noundef 986, ptr noundef @__func__.ssl_add_cert_to_wpacket)
  %47 = load ptr, ptr %7, align 8, !tbaa !18
  call void (ptr, i32, i32, ptr, ...) @ossl_statem_fatal(ptr noundef %47, i32 noundef 80, i32 noundef 786691, ptr noundef null)
  br label %48

48:                                               ; preds = %46, %43
  store i32 0, ptr %6, align 4
  store i32 1, ptr %15, align 4
  br label %90

49:                                               ; preds = %38
  %50 = load ptr, ptr %7, align 8, !tbaa !18
  %51 = getelementptr inbounds nuw %struct.ssl_connection_st, ptr %50, i32 0, i32 0
  %52 = getelementptr inbounds nuw %struct.ssl_st, ptr %51, i32 0, i32 3
  %53 = load ptr, ptr %52, align 8, !tbaa !86
  %54 = getelementptr inbounds nuw %struct.ssl_method_st, ptr %53, i32 0, i32 28
  %55 = load ptr, ptr %54, align 8, !tbaa !87
  %56 = getelementptr inbounds nuw %struct.ssl3_enc_method, ptr %55, i32 0, i32 10
  %57 = load i32, ptr %56, align 8, !tbaa !90
  %58 = and i32 %57, 8
  %59 = icmp ne i32 %58, 0
  br i1 %59, label %76, label %60

60:                                               ; preds = %49
  %61 = load ptr, ptr %7, align 8, !tbaa !18
  %62 = getelementptr inbounds nuw %struct.ssl_connection_st, ptr %61, i32 0, i32 0
  %63 = getelementptr inbounds nuw %struct.ssl_st, ptr %62, i32 0, i32 3
  %64 = load ptr, ptr %63, align 8, !tbaa !86
  %65 = getelementptr inbounds nuw %struct.ssl_method_st, ptr %64, i32 0, i32 0
  %66 = load i32, ptr %65, align 8, !tbaa !92
  %67 = icmp sge i32 %66, 772
  br i1 %67, label %68, label %76

68:                                               ; preds = %60
  %69 = load ptr, ptr %7, align 8, !tbaa !18
  %70 = getelementptr inbounds nuw %struct.ssl_connection_st, ptr %69, i32 0, i32 0
  %71 = getelementptr inbounds nuw %struct.ssl_st, ptr %70, i32 0, i32 3
  %72 = load ptr, ptr %71, align 8, !tbaa !86
  %73 = getelementptr inbounds nuw %struct.ssl_method_st, ptr %72, i32 0, i32 0
  %74 = load i32, ptr %73, align 8, !tbaa !92
  %75 = icmp ne i32 %74, 65536
  br i1 %75, label %79, label %76

76:                                               ; preds = %68, %60, %49
  %77 = load i32, ptr %11, align 4, !tbaa !85
  %78 = icmp ne i32 %77, 0
  br i1 %78, label %79, label %89

79:                                               ; preds = %76, %68
  %80 = load ptr, ptr %7, align 8, !tbaa !18
  %81 = load ptr, ptr %8, align 8, !tbaa !97
  %82 = load i32, ptr %14, align 4, !tbaa !85
  %83 = load ptr, ptr %9, align 8, !tbaa !208
  %84 = load i32, ptr %10, align 4, !tbaa !85
  %85 = sext i32 %84 to i64
  %86 = call i32 @tls_construct_extensions(ptr noundef %80, ptr noundef %81, i32 noundef %82, ptr noundef %83, i64 noundef %85)
  %87 = icmp ne i32 %86, 0
  br i1 %87, label %89, label %88

88:                                               ; preds = %79
  store i32 0, ptr %6, align 4
  store i32 1, ptr %15, align 4
  br label %90

89:                                               ; preds = %79, %76
  store i32 1, ptr %6, align 4
  store i32 1, ptr %15, align 4
  br label %90

90:                                               ; preds = %89, %88, %48, %31
  call void @llvm.lifetime.end.p0(i64 4, ptr %14) #9
  call void @llvm.lifetime.end.p0(i64 8, ptr %13) #9
  call void @llvm.lifetime.end.p0(i64 4, ptr %12) #9
  %91 = load i32, ptr %6, align 4
  ret i32 %91
}