; Function Attrs: nounwind uwtable
define internal fastcc range(i32 0, 2) i32 @ssl_add_cert_to_wpacket(ptr noundef %0, ptr noundef %1, ptr noundef %2, i32 noundef %3, i32 noundef %4) unnamed_addr #0 {
  %6 = alloca ptr, align 8
  call void @llvm.lifetime.start.p0(i64 8, ptr nonnull %6) #11
  %7 = icmp ne i32 %4, 0
  %spec.select = select i1 %7, i32 36864, i32 4096
  %8 = tail call i32 @i2d_X509(ptr noundef %2, ptr noundef null) #11
  %9 = icmp slt i32 %8, 0
  br i1 %9, label %10, label %12

10:                                               ; preds = %5
  br i1 %7, label %37, label %11

11:                                               ; preds = %10
  tail call void @ERR_new() #11
  tail call void @ERR_set_debug(ptr noundef nonnull @.str, i32 noundef 980, ptr noundef nonnull @__func__.ssl_add_cert_to_wpacket) #11
  tail call void (ptr, i32, i32, ptr, ...) @ossl_statem_fatal(ptr noundef %0, i32 noundef 80, i32 noundef 524295, ptr noundef null) #11
  br label %37

12:                                               ; preds = %5
  %13 = zext nneg i32 %8 to i64
  %14 = call i32 @WPACKET_sub_allocate_bytes__(ptr noundef %1, i64 noundef %13, ptr noundef nonnull %6, i64 noundef 3) #11
  %.not = icmp eq i32 %14, 0
  br i1 %.not, label %17, label %15

15:                                               ; preds = %12
  %16 = call i32 @i2d_X509(ptr noundef %2, ptr noundef nonnull %6) #11
  %.not26 = icmp eq i32 %16, %8
  br i1 %.not26, label %19, label %17

17:                                               ; preds = %15, %12
  br i1 %7, label %37, label %18

18:                                               ; preds = %17
  call void @ERR_new() #11
  call void @ERR_set_debug(ptr noundef nonnull @.str, i32 noundef 986, ptr noundef nonnull @__func__.ssl_add_cert_to_wpacket) #11
  call void (ptr, i32, i32, ptr, ...) @ossl_statem_fatal(ptr noundef %0, i32 noundef 80, i32 noundef 786691, ptr noundef null) #11
  br label %37

19:                                               ; preds = %15
  %20 = getelementptr inbounds nuw i8, ptr %0, i64 24
  %21 = load ptr, ptr %20, align 8, !tbaa !81
  %22 = getelementptr inbounds nuw i8, ptr %21, i64 216
  %23 = load ptr, ptr %22, align 8, !tbaa !82
  %24 = getelementptr inbounds nuw i8, ptr %23, i64 80
  %25 = load i32, ptr %24, align 8, !tbaa !85
  %26 = and i32 %25, 8
  %.not27 = icmp eq i32 %26, 0
  br i1 %.not27, label %27, label %32

27:                                               ; preds = %19
  %28 = load i32, ptr %21, align 8, !tbaa !87
  %29 = icmp sgt i32 %28, 771
  br i1 %29, label %30, label %32

30:                                               ; preds = %27
  %31 = icmp ne i32 %28, 65536
  %or.cond = or i1 %7, %31
  br i1 %or.cond, label %33, label %36

32:                                               ; preds = %27, %19
  br i1 %7, label %33, label %36

33:                                               ; preds = %32, %30
  %34 = sext i32 %3 to i64
  %35 = call i32 @tls_construct_extensions(ptr noundef nonnull %0, ptr noundef %1, i32 noundef %spec.select, ptr noundef %2, i64 noundef %34) #11
  %.not28 = icmp eq i32 %35, 0
  br i1 %.not28, label %37, label %36

36:                                               ; preds = %30, %33, %32
  br label %37

37:                                               ; preds = %33, %17, %18, %10, %11, %36
  %.023 = phi i32 [ 1, %36 ], [ 0, %11 ], [ 0, %10 ], [ 0, %18 ], [ 0, %17 ], [ 0, %33 ]
  call void @llvm.lifetime.end.p0(i64 8, ptr nonnull %6) #11
  ret i32 %.023
}